#include <math.h>
#include <stdio.h>
#include <stdlib.h>
#include <string.h>

int main()
{
	int i,j,k,m,n;
	scanf("%d",&n);
	if(n==1)
	printf("End\n");
	else
	{
		for(i=n;i!=1;)
		{
			if(i%2==0)
			{
				j=i/2;
				printf("%d/2=%d\n",i,j);
				i=j;
			}
			else
			{
				j=i*3+1;
				printf("%d*3+1=%d\n",i,j);
				i=j;
			}
		}
		printf("End\n");
	}
}
	
				
