; ModuleID = '34/781.c'
source_filename = "34/781.c"
target datalayout = "e-m:e-p270:32:32-p271:32:32-p272:64:64-i64:64-f80:128-n8:16:32:64-S128"
target triple = "x86_64-pc-linux-gnu"

@.str = private unnamed_addr constant [3 x i8] c"%d\00", align 1
@.str.1 = private unnamed_addr constant [5 x i8] c"End\0A\00", align 1
@.str.2 = private unnamed_addr constant [9 x i8] c"%d/2=%d\0A\00", align 1
@.str.3 = private unnamed_addr constant [11 x i8] c"%d*3+1=%d\0A\00", align 1

; Function Attrs: noinline nounwind uwtable
define dso_local i32 @main() #0 {
  %1 = alloca i32, align 4
  %2 = alloca i32, align 4
  %3 = alloca i32, align 4
  %4 = alloca i32, align 4
  %5 = alloca i32, align 4
  %6 = alloca i32, align 4
  store i32 0, i32* %1, align 4
  %7 = call i32 (i8*, ...) @__isoc99_scanf(i8* getelementptr inbounds ([3 x i8], [3 x i8]* @.str, i64 0, i64 0), i32* %6)
  %8 = load i32, i32* %6, align 4
  %9 = icmp eq i32 %8, 1
  br i1 %9, label %10, label %12

10:                                               ; preds = %0
  %11 = call i32 (i8*, ...) @printf(i8* getelementptr inbounds ([5 x i8], [5 x i8]* @.str.1, i64 0, i64 0))
  br label %39

12:                                               ; preds = %0
  %13 = load i32, i32* %6, align 4
  store i32 %13, i32* %2, align 4
  br label %14

14:                                               ; preds = %36, %12
  %15 = load i32, i32* %2, align 4
  %16 = icmp ne i32 %15, 1
  br i1 %16, label %17, label %37

17:                                               ; preds = %14
  %18 = load i32, i32* %2, align 4
  %19 = srem i32 %18, 2
  %20 = icmp eq i32 %19, 0
  br i1 %20, label %21, label %28

21:                                               ; preds = %17
  %22 = load i32, i32* %2, align 4
  %23 = sdiv i32 %22, 2
  store i32 %23, i32* %3, align 4
  %24 = load i32, i32* %2, align 4
  %25 = load i32, i32* %3, align 4
  %26 = call i32 (i8*, ...) @printf(i8* getelementptr inbounds ([9 x i8], [9 x i8]* @.str.2, i64 0, i64 0), i32 %24, i32 %25)
  %27 = load i32, i32* %3, align 4
  store i32 %27, i32* %2, align 4
  br label %36

28:                                               ; preds = %17
  %29 = load i32, i32* %2, align 4
  %30 = mul nsw i32 %29, 3
  %31 = add nsw i32 %30, 1
  store i32 %31, i32* %3, align 4
  %32 = load i32, i32* %2, align 4
  %33 = load i32, i32* %3, align 4
  %34 = call i32 (i8*, ...) @printf(i8* getelementptr inbounds ([11 x i8], [11 x i8]* @.str.3, i64 0, i64 0), i32 %32, i32 %33)
  %35 = load i32, i32* %3, align 4
  store i32 %35, i32* %2, align 4
  br label %36

36:                                               ; preds = %28, %21
  br label %14

37:                                               ; preds = %14
  %38 = call i32 (i8*, ...) @printf(i8* getelementptr inbounds ([5 x i8], [5 x i8]* @.str.1, i64 0, i64 0))
  br label %39

39:                                               ; preds = %37, %10
  %40 = load i32, i32* %1, align 4
  ret i32 %40
}

declare dso_local i32 @__isoc99_scanf(i8*, ...) #1

declare dso_local i32 @printf(i8*, ...) #1


!llvm.module.flags = !{!0}
!llvm.ident = !{!1}

!0 = !{i32 1, !"wchar_size", i32 4}
!1 = !{!"clang version 10.0.0-4ubuntu1 "}
